target datalayout = "e-m:e-p270:32:32-p271:32:32-p272:64:64-i64:64-i128:128-f80:128-n8:16:32:64-S128"
target triple = "x86_64-pc-linux-gnu"

%struct.StringInfoData = type { ptr, i32, i32, i32 }

; Function Attrs: nounwind uwtable
define dso_local void @resetStringInfo(ptr noundef %0) #0 {
  %2 = alloca ptr, align 8
  store ptr %0, ptr %2, align 8
  %3 = load ptr, ptr %2, align 8
  %4 = getelementptr inbounds nuw %struct.StringInfoData, ptr %3, i32 0, i32 0
  %5 = load ptr, ptr %4, align 8
  %6 = getelementptr inbounds i8, ptr %5, i64 0
  store i8 0, ptr %6, align 1
  %7 = load ptr, ptr %2, align 8
  %8 = getelementptr inbounds nuw %struct.StringInfoData, ptr %7, i32 0, i32 1
  store i32 0, ptr %8, align 8
  %9 = load ptr, ptr %2, align 8
  %10 = getelementptr inbounds nuw %struct.StringInfoData, ptr %9, i32 0, i32 3
  store i32 0, ptr %10, align 8
  ret void
}

; Function Attrs: inlinehint nounwind uwtable
define internal void @initStringInfoInternal(ptr noundef %0, i32 noundef %1) #1 {
  %3 = alloca ptr, align 8
  %4 = alloca i32, align 4
  store ptr %0, ptr %3, align 8
  store i32 %1, ptr %4, align 4
  %5 = load i32, ptr %4, align 4
  %6 = sext i32 %5 to i64
  %7 = call ptr @palloc(i64 noundef %6)
  %8 = load ptr, ptr %3, align 8
  %9 = getelementptr inbounds nuw %struct.StringInfoData, ptr %8, i32 0, i32 0
  store ptr %7, ptr %9, align 8
  %10 = load i32, ptr %4, align 4
  %11 = load ptr, ptr %3, align 8
  %12 = getelementptr inbounds nuw %struct.StringInfoData, ptr %11, i32 0, i32 2
  store i32 %10, ptr %12, align 4
  %13 = load ptr, ptr %3, align 8
  call void @resetStringInfo(ptr noundef %13)
  ret void
}

; Function Attrs: nounwind uwtable
define dso_local void @initStringInfoExt(ptr noundef %0, i32 noundef %1) #0 {
  %3 = alloca ptr, align 8
  %4 = alloca i32, align 4
  store ptr %0, ptr %3, align 8
  store i32 %1, ptr %4, align 4
  %5 = load ptr, ptr %3, align 8
  %6 = load i32, ptr %4, align 4
  call void @initStringInfoInternal(ptr noundef %5, i32 noundef %6)
  ret void
}